target datalayout = "e-m:e-p270:32:32-p271:32:32-p272:64:64-i64:64-i128:128-f80:128-n8:16:32:64-S128"
target triple = "x86_64-pc-linux-gnu"

%"class.std::_Function_base" = type { %"union.std::_Any_data", ptr }
%"union.std::_Any_data" = type { %"union.std::_Nocopy_types" }
%"union.std::_Nocopy_types" = type { { i64, i64 } }
%"class.std::function.800" = type { %"class.std::_Function_base", ptr }
%class.anon.806 = type <{ %"class.std::function.800", i32, [4 x i8] }>
%"struct.std::thread::_State_impl" = type { %"struct.std::thread::_State", %"struct.std::thread::_Invoker" }
%"struct.std::thread::_State" = type { ptr }
%"struct.std::thread::_Invoker" = type { %"class.std::tuple.816" }
%"class.std::tuple.816" = type { %"struct.std::_Tuple_impl.817" }
%"struct.std::_Tuple_impl.817" = type { %"struct.std::_Head_base.818" }
%"struct.std::_Head_base.818" = type { %class.anon.806 }

; Function Attrs: mustprogress nounwind uwtable
define linkonce_odr void @_ZNSt14_Function_baseD2Ev(ptr noundef nonnull align 8 dereferenceable(24) %0) unnamed_addr #5 comdat align 2 personality ptr @__gxx_personality_v0 {
  %2 = alloca ptr, align 8
  store ptr %0, ptr %2, align 8, !tbaa !1380
  %3 = load ptr, ptr %2, align 8
  %4 = getelementptr inbounds nuw %"class.std::_Function_base", ptr %3, i32 0, i32 1
  %5 = load ptr, ptr %4, align 8, !tbaa !1382
  %6 = icmp ne ptr %5, null
  br i1 %6, label %7, label %14

7:                                                ; preds = %1
  %8 = getelementptr inbounds nuw %"class.std::_Function_base", ptr %3, i32 0, i32 1
  %9 = load ptr, ptr %8, align 8, !tbaa !1382
  %10 = getelementptr inbounds nuw %"class.std::_Function_base", ptr %3, i32 0, i32 0
  %11 = getelementptr inbounds nuw %"class.std::_Function_base", ptr %3, i32 0, i32 0
  %12 = invoke noundef zeroext i1 %9(ptr noundef nonnull align 8 dereferenceable(16) %10, ptr noundef nonnull align 8 dereferenceable(16) %11, i32 noundef 3)
          to label %13 unwind label %15

13:                                               ; preds = %7
  br label %14

14:                                               ; preds = %13, %1
  ret void

15:                                               ; preds = %7
  %16 = landingpad { ptr, i32 }
          catch ptr null
  %17 = extractvalue { ptr, i32 } %16, 0
  call void @__clang_call_terminate(ptr %17) #32
  unreachable
}

; Function Attrs: inlinehint mustprogress nounwind uwtable
define internal void @"_ZZZZ24test_submodule_callbacksRN8pybind117module_EENK4$_24clERKSt8functionIFviEERKNS_4listEENKUliE_clEiENUlvE_D2Ev"(ptr noundef nonnull align 8 dereferenceable(36) %0) unnamed_addr #0 align 2 {
  %2 = alloca ptr, align 8
  store ptr %0, ptr %2, align 8, !tbaa !85
  %3 = load ptr, ptr %2, align 8
  %4 = getelementptr inbounds nuw %class.anon.806, ptr %3, i32 0, i32 0
  call void @_ZNSt14_Function_baseD2Ev(ptr noundef nonnull align 8 dereferenceable(32) %4) #25
  ret void
}

; Function Attrs: inlinehint mustprogress nounwind uwtable
define internal void @"_ZNSt10_Head_baseILm0EZZZ24test_submodule_callbacksRN8pybind117module_EENK4$_24clERKSt8functionIFviEERKNS0_4listEENKUliE_clEiEUlvE_Lb0EED2Ev"(ptr noundef nonnull align 8 dereferenceable(40) %0) unnamed_addr #0 align 2 {
  %2 = alloca ptr, align 8
  store ptr %0, ptr %2, align 8, !tbaa !2247
  %3 = load ptr, ptr %2, align 8
  %4 = getelementptr inbounds nuw %"struct.std::_Head_base.818", ptr %3, i32 0, i32 0
  call void @"_ZZZZ24test_submodule_callbacksRN8pybind117module_EENK4$_24clERKSt8functionIFviEERKNS_4listEENKUliE_clEiENUlvE_D2Ev"(ptr noundef nonnull align 8 dereferenceable(36) %4) #25
  ret void
}

; Function Attrs: inlinehint mustprogress nounwind uwtable
define internal void @"_ZNSt6thread8_InvokerISt5tupleIJZZZ24test_submodule_callbacksRN8pybind117module_EENK4$_24clERKSt8functionIFviEERKNS2_4listEENKUliE_clEiEUlvE_EEED2Ev"(ptr noundef nonnull align 8 dereferenceable(40) %0) unnamed_addr #0 align 2 {
  %2 = alloca ptr, align 8
  store ptr %0, ptr %2, align 8, !tbaa !2241
  %3 = load ptr, ptr %2, align 8
  %4 = getelementptr inbounds nuw %"struct.std::thread::_Invoker", ptr %3, i32 0, i32 0
  call void @"_ZNSt10_Head_baseILm0EZZZ24test_submodule_callbacksRN8pybind117module_EENK4$_24clERKSt8functionIFviEERKNS0_4listEENKUliE_clEiEUlvE_Lb0EED2Ev"(ptr noundef nonnull align 8 dereferenceable(40) %4) #25
  ret void
}

; Function Attrs: inlinehint mustprogress nounwind uwtable
define internal void @"_ZNSt6thread11_State_implINS_8_InvokerISt5tupleIJZZZ24test_submodule_callbacksRN8pybind117module_EENK4$_24clERKSt8functionIFviEERKNS3_4listEENKUliE_clEiEUlvE_EEEEED2Ev"(ptr noundef nonnull align 8 dereferenceable(48) %0) unnamed_addr #0 align 2 {
  %2 = alloca ptr, align 8
  store ptr %0, ptr %2, align 8, !tbaa !2233
  %3 = load ptr, ptr %2, align 8
  store ptr getelementptr inbounds inrange(-16, 24) ({ [5 x ptr] }, ptr @"_ZTVNSt6thread11_State_implINS_8_InvokerISt5tupleIJZZZ24test_submodule_callbacksRN8pybind117module_EENK4$_24clERKSt8functionIFviEERKNS3_4listEENKUliE_clEiEUlvE_EEEEEE", i32 0, i32 0, i32 2), ptr %3, align 8, !tbaa !128
  %4 = getelementptr inbounds nuw %"struct.std::thread::_State_impl", ptr %3, i32 0, i32 1
  call void @"_ZNSt6thread8_InvokerISt5tupleIJZZZ24test_submodule_callbacksRN8pybind117module_EENK4$_24clERKSt8functionIFviEERKNS2_4listEENKUliE_clEiEUlvE_EEED2Ev"(ptr noundef nonnull align 8 dereferenceable(40) %4) #25
  call void @_ZNSt6thread6_StateD2Ev(ptr noundef nonnull align 8 dereferenceable(8) %3) #25
  ret void
}

; Function Attrs: inlinehint mustprogress nounwind uwtable
define internal void @"_ZNSt6thread11_State_implINS_8_InvokerISt5tupleIJZZZ24test_submodule_callbacksRN8pybind117module_EENK4$_24clERKSt8functionIFviEERKNS3_4listEENKUliE_clEiEUlvE_EEEEED0Ev"(ptr noundef nonnull align 8 dereferenceable(48) %0) unnamed_addr #0 align 2 {
  %2 = alloca ptr, align 8
  store ptr %0, ptr %2, align 8, !tbaa !2233
  %3 = load ptr, ptr %2, align 8
  call void @"_ZNSt6thread11_State_implINS_8_InvokerISt5tupleIJZZZ24test_submodule_callbacksRN8pybind117module_EENK4$_24clERKSt8functionIFviEERKNS3_4listEENKUliE_clEiEUlvE_EEEEED2Ev"(ptr noundef nonnull align 8 dereferenceable(48) %3) #25
  call void @_ZdlPvm(ptr noundef %3, i64 noundef 48) #35
  ret void
}